target datalayout = "e-m:e-p270:32:32-p271:32:32-p272:64:64-i64:64-i128:128-f80:128-n8:16:32:64-S128"
target triple = "x86_64-pc-linux-gnu"

%struct._fileset = type { ptr, ptr }
%struct._GList = type { ptr, ptr, ptr }
%struct._GString = type { ptr, i64, i64 }

@set = internal global %struct._fileset zeroinitializer, align 8

; Function Attrs: nounwind uwtable
define hidden void @fileset_update_dlg(ptr noundef %0) #0 {
  %2 = alloca ptr, align 8
  %3 = alloca ptr, align 8
  store ptr %0, ptr %2, align 8
  %4 = load ptr, ptr %2, align 8
  call void @fileset_dlg_begin_add_file(ptr noundef %4)
  %5 = load ptr, ptr @set, align 8
  %6 = call ptr @g_list_first(ptr noundef %5)
  store ptr %6, ptr %3, align 8
  br label %7

7:                                                ; preds = %22, %1
  %8 = load ptr, ptr %3, align 8
  %9 = icmp ne ptr %8, null
  br i1 %9, label %10, label %24

10:                                               ; preds = %7
  %11 = load ptr, ptr %3, align 8
  %12 = getelementptr inbounds %struct._GList, ptr %11, i32 0, i32 0
  %13 = load ptr, ptr %12, align 8
  %14 = load ptr, ptr %2, align 8
  call void @fileset_dlg_add_file(ptr noundef %13, ptr noundef %14)
  %15 = load ptr, ptr %3, align 8
  %16 = icmp ne ptr %15, null
  br i1 %16, label %17, label %21

17:                                               ; preds = %10
  %18 = load ptr, ptr %3, align 8
  %19 = getelementptr inbounds %struct._GList, ptr %18, i32 0, i32 1
  %20 = load ptr, ptr %19, align 8
  br label %22

21:                                               ; preds = %10
  br label %22

22:                                               ; preds = %21, %17
  %23 = phi ptr [ %20, %17 ], [ null, %21 ]
  store ptr %23, ptr %3, align 8
  br label %7, !llvm.loop !6

24:                                               ; preds = %7
  %25 = load ptr, ptr %2, align 8
  call void @fileset_dlg_end_add_file(ptr noundef %25)
  ret void
}

; Function Attrs: nounwind uwtable
define internal i32 @fileset_is_file_in_set(ptr noundef %0, ptr noundef %1) #0 {
  %3 = alloca i32, align 4
  %4 = alloca ptr, align 8
  %5 = alloca ptr, align 8
  %6 = alloca ptr, align 8
  %7 = alloca ptr, align 8
  %8 = alloca ptr, align 8
  %9 = alloca ptr, align 8
  %10 = alloca i32, align 4
  %11 = alloca i32, align 4
  %12 = alloca i32, align 4
  store ptr %0, ptr %4, align 8
  store ptr %1, ptr %5, align 8
  store i32 0, ptr %12, align 4
  %13 = load ptr, ptr %4, align 8
  %14 = call i32 @fileset_filename_match_pattern(ptr noundef %13, ptr noundef %6, ptr noundef %8, ptr noundef null)
  store i32 %14, ptr %10, align 4
  %15 = load i32, ptr %10, align 4
  %16 = icmp eq i32 %15, 0
  br i1 %16, label %17, label %18

17:                                               ; preds = %2
  store i32 0, ptr %3, align 4
  br label %43

18:                                               ; preds = %2
  %19 = load ptr, ptr %5, align 8
  %20 = call i32 @fileset_filename_match_pattern(ptr noundef %19, ptr noundef %7, ptr noundef %9, ptr noundef null)
  store i32 %20, ptr %11, align 4
  br label %21

21:                                               ; preds = %18
  br label %22

22:                                               ; preds = %21
  %23 = load i32, ptr %10, align 4
  %24 = load i32, ptr %11, align 4
  %25 = icmp eq i32 %23, %24
  br i1 %25, label %26, label %37

26:                                               ; preds = %22
  %27 = load ptr, ptr %6, align 8
  %28 = load ptr, ptr %7, align 8
  %29 = call i32 @g_strcmp0(ptr noundef %27, ptr noundef %28)
  %30 = icmp eq i32 %29, 0
  br i1 %30, label %31, label %37

31:                                               ; preds = %26
  %32 = load ptr, ptr %8, align 8
  %33 = load ptr, ptr %9, align 8
  %34 = call i32 @g_strcmp0(ptr noundef %32, ptr noundef %33)
  %35 = icmp eq i32 %34, 0
  br i1 %35, label %36, label %37

36:                                               ; preds = %31
  store i32 1, ptr %12, align 4
  br label %37

37:                                               ; preds = %36, %31, %26, %22
  %38 = load ptr, ptr %6, align 8
  call void @g_free(ptr noundef %38)
  %39 = load ptr, ptr %7, align 8
  call void @g_free(ptr noundef %39)
  %40 = load ptr, ptr %8, align 8
  call void @g_free(ptr noundef %40)
  %41 = load ptr, ptr %9, align 8
  call void @g_free(ptr noundef %41)
  %42 = load i32, ptr %12, align 4
  store i32 %42, ptr %3, align 4
  br label %43

43:                                               ; preds = %37, %17
  %44 = load i32, ptr %3, align 4
  ret i32 %44
}

; Function Attrs: nounwind uwtable
define internal ptr @g_string_append_c_inline(ptr noundef %0, i8 noundef signext %1) #0 {
  %3 = alloca ptr, align 8
  %4 = alloca i8, align 1
  store ptr %0, ptr %3, align 8
  store i8 %1, ptr %4, align 1
  %5 = load ptr, ptr %3, align 8
  %6 = getelementptr inbounds %struct._GString, ptr %5, i32 0, i32 1
  %7 = load i64, ptr %6, align 8
  %8 = add i64 %7, 1
  %9 = load ptr, ptr %3, align 8
  %10 = getelementptr inbounds %struct._GString, ptr %9, i32 0, i32 2
  %11 = load i64, ptr %10, align 8
  %12 = icmp ult i64 %8, %11
  br i1 %12, label %13, label %30

13:                                               ; preds = %2
  %14 = load i8, ptr %4, align 1
  %15 = load ptr, ptr %3, align 8
  %16 = getelementptr inbounds %struct._GString, ptr %15, i32 0, i32 0
  %17 = load ptr, ptr %16, align 8
  %18 = load ptr, ptr %3, align 8
  %19 = getelementptr inbounds %struct._GString, ptr %18, i32 0, i32 1
  %20 = load i64, ptr %19, align 8
  %21 = add i64 %20, 1
  store i64 %21, ptr %19, align 8
  %22 = getelementptr i8, ptr %17, i64 %20
  store i8 %14, ptr %22, align 1
  %23 = load ptr, ptr %3, align 8
  %24 = getelementptr inbounds %struct._GString, ptr %23, i32 0, i32 0
  %25 = load ptr, ptr %24, align 8
  %26 = load ptr, ptr %3, align 8
  %27 = getelementptr inbounds %struct._GString, ptr %26, i32 0, i32 1
  %28 = load i64, ptr %27, align 8
  %29 = getelementptr i8, ptr %25, i64 %28
  store i8 0, ptr %29, align 1
  br label %34

30:                                               ; preds = %2
  %31 = load ptr, ptr %3, align 8
  %32 = load i8, ptr %4, align 1
  %33 = call ptr @g_string_insert_c(ptr noundef %31, i64 noundef -1, i8 noundef signext %32)
  br label %34

34:                                               ; preds = %30, %13
  %35 = load ptr, ptr %3, align 8
  ret ptr %35
}

; Function Attrs: nounwind uwtable
define hidden void @fileset_add_dir(ptr noundef %0, ptr noundef %1) #0 {
  %3 = alloca ptr, align 8
  %4 = alloca ptr, align 8
  %5 = alloca ptr, align 8
  %6 = alloca ptr, align 8
  %7 = alloca ptr, align 8
  %8 = alloca ptr, align 8
  %9 = alloca ptr, align 8
  store ptr %0, ptr %3, align 8
  store ptr %1, ptr %4, align 8
  %10 = load ptr, ptr %3, align 8
  %11 = call noalias ptr @g_strdup(ptr noundef %10)
  store ptr %11, ptr %9, align 8
  %12 = load ptr, ptr %9, align 8
  %13 = call ptr @get_dirname(ptr noundef %12)
  %14 = call ptr @g_string_new(ptr noundef %13)
  store ptr %14, ptr %8, align 8
  %15 = load ptr, ptr %9, align 8
  call void @g_free(ptr noundef %15)
  %16 = load ptr, ptr %8, align 8
  %17 = getelementptr inbounds %struct._GString, ptr %16, i32 0, i32 0
  %18 = load ptr, ptr %17, align 8
  %19 = call noalias ptr @g_strdup(ptr noundef %18)
  %20 = getelementptr inbounds %struct._fileset, ptr @set, i32 0, i32 1
  store ptr %19, ptr %20, align 8
  %21 = load ptr, ptr %8, align 8
  %22 = call ptr @g_string_append_c_inline(ptr noundef %21, i8 noundef signext 47)
  store ptr %22, ptr %8, align 8
  %23 = load ptr, ptr %3, align 8
  %24 = call i32 @fileset_filename_match_pattern(ptr noundef %23, ptr noundef null, ptr noundef null, ptr noundef null)
  %25 = icmp ne i32 %24, 0
  br i1 %25, label %26, label %60

26:                                               ; preds = %2
  %27 = load ptr, ptr %8, align 8
  %28 = getelementptr inbounds %struct._GString, ptr %27, i32 0, i32 0
  %29 = load ptr, ptr %28, align 8
  %30 = call ptr @g_dir_open(ptr noundef %29, i32 noundef 0, ptr noundef null)
  store ptr %30, ptr %5, align 8
  %31 = icmp ne ptr %30, null
  br i1 %31, label %32, label %59

32:                                               ; preds = %26
  br label %33

33:                                               ; preds = %56, %32
  %34 = load ptr, ptr %5, align 8
  %35 = call ptr @g_dir_read_name(ptr noundef %34)
  store ptr %35, ptr %6, align 8
  %36 = icmp ne ptr %35, null
  br i1 %36, label %37, label %57

37:                                               ; preds = %33
  %38 = load ptr, ptr %6, align 8
  store ptr %38, ptr %7, align 8
  %39 = load ptr, ptr %7, align 8
  %40 = load ptr, ptr %3, align 8
  %41 = call ptr @get_basename(ptr noundef %40)
  %42 = call i32 @fileset_is_file_in_set(ptr noundef %39, ptr noundef %41)
  %43 = icmp ne i32 %42, 0
  br i1 %43, label %44, label %56

44:                                               ; preds = %37
  %45 = load ptr, ptr %8, align 8
  %46 = getelementptr inbounds %struct._GString, ptr %45, i32 0, i32 0
  %47 = load ptr, ptr %46, align 8
  %48 = load ptr, ptr %7, align 8
  %49 = load ptr, ptr %7, align 8
  %50 = load ptr, ptr %3, align 8
  %51 = call ptr @get_basename(ptr noundef %50)
  %52 = call i32 @strcmp(ptr noundef %49, ptr noundef %51) #5
  %53 = icmp eq i32 %52, 0
  %54 = zext i1 %53 to i32
  %55 = call ptr @fileset_add_file(ptr noundef %47, ptr noundef %48, i32 noundef %54)
  br label %56

56:                                               ; preds = %44, %37
  br label %33, !llvm.loop !7

57:                                               ; preds = %33
  %58 = load ptr, ptr %5, align 8
  call void @g_dir_close(ptr noundef %58)
  br label %59

59:                                               ; preds = %57, %26
  br label %67

60:                                               ; preds = %2
  %61 = load ptr, ptr %8, align 8
  %62 = getelementptr inbounds %struct._GString, ptr %61, i32 0, i32 0
  %63 = load ptr, ptr %62, align 8
  %64 = load ptr, ptr %3, align 8
  %65 = call ptr @get_basename(ptr noundef %64)
  %66 = call ptr @fileset_add_file(ptr noundef %63, ptr noundef %65, i32 noundef 1)
  br label %67

67:                                               ; preds = %60, %59
  %68 = load ptr, ptr %8, align 8
  %69 = call ptr @g_string_free(ptr noundef %68, i32 noundef 1)
  %70 = load ptr, ptr @set, align 8
  %71 = call ptr @g_list_sort(ptr noundef %70, ptr noundef @fileset_sort_compare)
  store ptr %71, ptr @set, align 8
  %72 = load ptr, ptr %4, align 8
  call void @fileset_update_dlg(ptr noundef %72)
  ret void
}