; Function Attrs: nounwind uwtable
define hidden void @fileset_add_dir(ptr noundef %0, ptr noundef %1) local_unnamed_addr #0 {
  %3 = alloca ptr, align 8
  %4 = alloca ptr, align 8
  %5 = alloca ptr, align 8
  %6 = alloca ptr, align 8
  %7 = tail call noalias ptr @g_strdup(ptr noundef %0) #9
  %8 = tail call ptr @get_dirname(ptr noundef %7) #9
  %9 = tail call ptr @g_string_new(ptr noundef %8) #9
  tail call void @g_free(ptr noundef %7) #9
  %10 = load ptr, ptr %9, align 8
  %11 = tail call noalias ptr @g_strdup(ptr noundef %10) #9
  store ptr %11, ptr @set.1, align 8
  %12 = getelementptr inbounds nuw i8, ptr %9, i64 8
  %13 = load i64, ptr %12, align 8
  %14 = add i64 %13, 1
  %15 = getelementptr inbounds nuw i8, ptr %9, i64 16
  %16 = load i64, ptr %15, align 8
  %17 = icmp ult i64 %14, %16
  br i1 %17, label %18, label %24

18:                                               ; preds = %2
  %19 = load ptr, ptr %9, align 8
  store i64 %14, ptr %12, align 8
  %20 = getelementptr i8, ptr %19, i64 %13
  store i8 47, ptr %20, align 1
  %21 = load ptr, ptr %9, align 8
  %22 = load i64, ptr %12, align 8
  %23 = getelementptr i8, ptr %21, i64 %22
  store i8 0, ptr %23, align 1
  br label %g_string_append_c_inline.exit

24:                                               ; preds = %2
  %25 = tail call ptr @g_string_insert_c(ptr noundef nonnull %9, i64 noundef -1, i8 noundef signext 47) #9
  br label %g_string_append_c_inline.exit

g_string_append_c_inline.exit:                    ; preds = %18, %24
  %26 = tail call i32 @fileset_filename_match_pattern(ptr noundef %0, ptr noundef null, ptr noundef null, ptr noundef null)
  %.not = icmp eq i32 %26, 0
  %27 = load ptr, ptr %9, align 8
  br i1 %.not, label %60, label %28

28:                                               ; preds = %g_string_append_c_inline.exit
  %29 = tail call ptr @g_dir_open(ptr noundef %27, i32 noundef 0, ptr noundef null) #9
  %.not20 = icmp eq ptr %29, null
  br i1 %.not20, label %62, label %.preheader

.preheader:                                       ; preds = %28
  %30 = tail call ptr @g_dir_read_name(ptr noundef nonnull %29) #9
  %.not2125 = icmp eq ptr %30, null
  br i1 %.not2125, label %._crit_edge, label %.lr.ph

.lr.ph:                                           ; preds = %.preheader, %58
  %31 = phi ptr [ %59, %58 ], [ %30, %.preheader ]
  %32 = call ptr @get_basename(ptr noundef %0) #9
  call void @llvm.lifetime.start.p0(i64 8, ptr nonnull %3)
  call void @llvm.lifetime.start.p0(i64 8, ptr nonnull %4)
  call void @llvm.lifetime.start.p0(i64 8, ptr nonnull %5)
  call void @llvm.lifetime.start.p0(i64 8, ptr nonnull %6)
  %33 = call i32 @fileset_filename_match_pattern(ptr noundef nonnull %31, ptr noundef nonnull %3, ptr noundef nonnull %5, ptr noundef null)
  %34 = icmp eq i32 %33, 0
  br i1 %34, label %fileset_is_file_in_set.exit.thread, label %35

fileset_is_file_in_set.exit.thread:               ; preds = %.lr.ph
  call void @llvm.lifetime.end.p0(i64 8, ptr nonnull %3)
  call void @llvm.lifetime.end.p0(i64 8, ptr nonnull %4)
  call void @llvm.lifetime.end.p0(i64 8, ptr nonnull %5)
  call void @llvm.lifetime.end.p0(i64 8, ptr nonnull %6)
  br label %58

35:                                               ; preds = %.lr.ph
  %36 = call i32 @fileset_filename_match_pattern(ptr noundef %32, ptr noundef nonnull %4, ptr noundef nonnull %6, ptr noundef null)
  %37 = icmp eq i32 %33, %36
  br i1 %37, label %38, label %fileset_is_file_in_set.exit

38:                                               ; preds = %35
  %39 = load ptr, ptr %3, align 8
  %40 = load ptr, ptr %4, align 8
  %41 = call i32 @g_strcmp0(ptr noundef %39, ptr noundef %40) #9
  %42 = icmp eq i32 %41, 0
  br i1 %42, label %43, label %fileset_is_file_in_set.exit

43:                                               ; preds = %38
  %44 = load ptr, ptr %5, align 8
  %45 = load ptr, ptr %6, align 8
  %46 = call i32 @g_strcmp0(ptr noundef %44, ptr noundef %45) #9
  %47 = icmp ne i32 %46, 0
  br label %fileset_is_file_in_set.exit

fileset_is_file_in_set.exit:                      ; preds = %35, %38, %43
  %.0.i = phi i1 [ true, %38 ], [ true, %35 ], [ %47, %43 ]
  %48 = load ptr, ptr %3, align 8
  call void @g_free(ptr noundef %48) #9
  %49 = load ptr, ptr %4, align 8
  call void @g_free(ptr noundef %49) #9
  %50 = load ptr, ptr %5, align 8
  call void @g_free(ptr noundef %50) #9
  %51 = load ptr, ptr %6, align 8
  call void @g_free(ptr noundef %51) #9
  call void @llvm.lifetime.end.p0(i64 8, ptr nonnull %3)
  call void @llvm.lifetime.end.p0(i64 8, ptr nonnull %4)
  call void @llvm.lifetime.end.p0(i64 8, ptr nonnull %5)
  call void @llvm.lifetime.end.p0(i64 8, ptr nonnull %6)
  br i1 %.0.i, label %58, label %52

52:                                               ; preds = %fileset_is_file_in_set.exit
  %53 = load ptr, ptr %9, align 8
  %54 = call ptr @get_basename(ptr noundef %0) #9
  %55 = call i32 @strcmp(ptr noundef nonnull dereferenceable(1) %31, ptr noundef nonnull dereferenceable(1) %54) #10
  %56 = icmp eq i32 %55, 0
  %57 = zext i1 %56 to i32
  call fastcc void @fileset_add_file(ptr noundef %53, ptr noundef nonnull %31, i32 noundef %57)
  br label %58

58:                                               ; preds = %fileset_is_file_in_set.exit.thread, %52, %fileset_is_file_in_set.exit
  %59 = call ptr @g_dir_read_name(ptr noundef nonnull %29) #9
  %.not21 = icmp eq ptr %59, null
  br i1 %.not21, label %._crit_edge, label %.lr.ph, !llvm.loop !7

._crit_edge:                                      ; preds = %58, %.preheader
  call void @g_dir_close(ptr noundef nonnull %29) #9
  br label %62

60:                                               ; preds = %g_string_append_c_inline.exit
  %61 = tail call ptr @get_basename(ptr noundef %0) #9
  tail call fastcc void @fileset_add_file(ptr noundef %27, ptr noundef %61, i32 noundef 1)
  br label %62

62:                                               ; preds = %28, %._crit_edge, %60
  %63 = call ptr @g_string_free(ptr noundef nonnull %9, i32 noundef 1) #9
  %64 = load ptr, ptr @set.0, align 8
  %65 = call ptr @g_list_sort(ptr noundef %64, ptr noundef nonnull @fileset_sort_compare) #9
  store ptr %65, ptr @set.0, align 8
  call void @fileset_dlg_begin_add_file(ptr noundef %1) #9
  %66 = load ptr, ptr @set.0, align 8
  %67 = call ptr @g_list_first(ptr noundef %66) #9
  %.not7.i = icmp eq ptr %67, null
  br i1 %.not7.i, label %fileset_update_dlg.exit, label %.lr.ph.i

.lr.ph.i:                                         ; preds = %62, %.lr.ph.i
  %.08.i = phi ptr [ %70, %.lr.ph.i ], [ %67, %62 ]
  %68 = load ptr, ptr %.08.i, align 8
  call void @fileset_dlg_add_file(ptr noundef %68, ptr noundef %1) #9
  %69 = getelementptr inbounds nuw i8, ptr %.08.i, i64 8
  %70 = load ptr, ptr %69, align 8
  %.not.i = icmp eq ptr %70, null
  br i1 %.not.i, label %fileset_update_dlg.exit, label %.lr.ph.i, !llvm.loop !6

fileset_update_dlg.exit:                          ; preds = %.lr.ph.i, %62
  call void @fileset_dlg_end_add_file(ptr noundef %1) #9
  ret void
}